; Function Attrs: mustprogress uwtable
define void @_ZN15VoipCallsDialog28on_actionSelectAll_triggeredEv(ptr nocapture noundef nonnull readonly align 8 dereferenceable(480) %0) local_unnamed_addr #0 align 2 {
  %2 = getelementptr inbounds i8, ptr %0, i64 136
  %3 = load ptr, ptr %2, align 8
  %4 = getelementptr inbounds i8, ptr %3, i64 80
  %5 = load ptr, ptr %4, align 8
  %6 = load ptr, ptr %5, align 8
  %7 = getelementptr inbounds i8, ptr %6, i64 552
  %8 = load ptr, ptr %7, align 8
  tail call void %8(ptr noundef nonnull align 8 dereferenceable(40) %5)
  ret void
}